; Function Attrs: cold nounwind optsize uwtable
define internal range(i32 -2147483648, 1) i32 @dxv_init(ptr noundef %0) #0 {
  %2 = getelementptr inbounds nuw i8, ptr %0, i64 32
  %3 = load ptr, ptr %2, align 8, !tbaa !4
  %4 = getelementptr inbounds nuw i8, ptr %0, i64 112
  %5 = load i32, ptr %4, align 8, !tbaa !27
  %6 = getelementptr inbounds nuw i8, ptr %0, i64 116
  %7 = load i32, ptr %6, align 4, !tbaa !28
  %8 = tail call i32 @av_image_check_size(i32 noundef %5, i32 noundef %7, i32 noundef 0, ptr noundef %0) #10
  %9 = icmp slt i32 %8, 0
  %10 = load i32, ptr %4, align 8, !tbaa !27
  br i1 %9, label %11, label %13

11:                                               ; preds = %1
  %12 = load i32, ptr %6, align 4, !tbaa !28
  tail call void (ptr, i32, ptr, ...) @av_log(ptr noundef nonnull %0, i32 noundef 16, ptr noundef nonnull @.str.2, i32 noundef %10, i32 noundef %12) #10
  br label %21

13:                                               ; preds = %1
  %14 = add nsw i32 %10, 3
  %15 = and i32 %14, -4
  %16 = getelementptr inbounds nuw i8, ptr %0, i64 120
  store i32 %15, ptr %16, align 8, !tbaa !29
  %17 = load i32, ptr %6, align 4, !tbaa !28
  %18 = add nsw i32 %17, 3
  %19 = and i32 %18, -4
  %20 = getelementptr inbounds nuw i8, ptr %0, i64 124
  store i32 %19, ptr %20, align 4, !tbaa !30
  tail call void @ff_texturedsp_init(ptr noundef %3) #10
  br label %21

21:                                               ; preds = %13, %11
  %.0 = phi i32 [ %8, %11 ], [ 0, %13 ]
  ret i32 %.0
}